target datalayout = "e-m:e-p270:32:32-p271:32:32-p272:64:64-i64:64-i128:128-f80:128-n8:16:32:64-S128"
target triple = "x86_64-pc-linux-gnu"

%struct.ChannelSpecs = type { ptr, i64, i32, i32 }
%struct.redisCommand = type { ptr, ptr, ptr, ptr, i32, ptr, ptr, i32, ptr, i32, ptr, i32, ptr, i32, i64, i64, ptr, i32, ptr, i32, ptr, ptr, i64, i64, i64, i64, i32, ptr, ptr, %struct.keySpec, ptr, ptr, ptr }
%struct.keySpec = type { ptr, i64, i32, %union.anon, i32, %union.anon.2 }
%union.anon = type { %struct.anon.1 }
%struct.anon.1 = type { ptr, i32 }
%union.anon.2 = type { %struct.anon.3 }
%struct.anon.3 = type { i32, i32, i32 }

; Function Attrs: nounwind uwtable
define dso_local i32 @doesCommandHaveChannelsWithFlags(ptr noundef %0, i32 noundef %1) #0 {
  %3 = alloca i32, align 4
  %4 = alloca ptr, align 8
  %5 = alloca i32, align 4
  %6 = alloca ptr, align 8
  %7 = alloca i32, align 4
  store ptr %0, ptr %4, align 8, !tbaa !213
  store i32 %1, ptr %5, align 4, !tbaa !14
  %8 = load ptr, ptr %4, align 8, !tbaa !213
  %9 = getelementptr inbounds nuw %struct.redisCommand, ptr %8, i32 0, i32 14
  %10 = load i64, ptr %9, align 8, !tbaa !222
  %11 = and i64 %10, 134217728
  %12 = icmp ne i64 %11, 0
  br i1 %12, label %13, label %14

13:                                               ; preds = %2
  store i32 1, ptr %3, align 4
  br label %47

14:                                               ; preds = %2
  call void @llvm.lifetime.start.p0(i64 8, ptr %6) #15
  store ptr @commands_with_channels, ptr %6, align 8, !tbaa !230
  br label %15

15:                                               ; preds = %41, %14
  %16 = load ptr, ptr %6, align 8, !tbaa !230
  %17 = getelementptr inbounds nuw %struct.ChannelSpecs, ptr %16, i32 0, i32 0
  %18 = load ptr, ptr %17, align 8, !tbaa !232
  %19 = icmp ne ptr %18, null
  br i1 %19, label %21, label %20

20:                                               ; preds = %15
  store i32 2, ptr %7, align 4
  br label %44

21:                                               ; preds = %15
  %22 = load ptr, ptr %4, align 8, !tbaa !213
  %23 = getelementptr inbounds nuw %struct.redisCommand, ptr %22, i32 0, i32 12
  %24 = load ptr, ptr %23, align 8, !tbaa !65
  %25 = load ptr, ptr %6, align 8, !tbaa !230
  %26 = getelementptr inbounds nuw %struct.ChannelSpecs, ptr %25, i32 0, i32 0
  %27 = load ptr, ptr %26, align 8, !tbaa !232
  %28 = icmp eq ptr %24, %27
  br i1 %28, label %29, label %40

29:                                               ; preds = %21
  %30 = load ptr, ptr %6, align 8, !tbaa !230
  %31 = getelementptr inbounds nuw %struct.ChannelSpecs, ptr %30, i32 0, i32 1
  %32 = load i64, ptr %31, align 8, !tbaa !234
  %33 = load i32, ptr %5, align 4, !tbaa !14
  %34 = sext i32 %33 to i64
  %35 = and i64 %32, %34
  %36 = icmp ne i64 %35, 0
  %37 = xor i1 %36, true
  %38 = xor i1 %37, true
  %39 = zext i1 %38 to i32
  store i32 %39, ptr %3, align 4
  store i32 1, ptr %7, align 4
  br label %44

40:                                               ; preds = %21
  br label %41

41:                                               ; preds = %40
  %42 = load ptr, ptr %6, align 8, !tbaa !230
  %43 = getelementptr inbounds %struct.ChannelSpecs, ptr %42, i64 1
  store ptr %43, ptr %6, align 8, !tbaa !230
  br label %15, !llvm.loop !235

44:                                               ; preds = %29, %20
  call void @llvm.lifetime.end.p0(i64 8, ptr %6) #15
  %45 = load i32, ptr %7, align 4
  switch i32 %45, label %49 [
    i32 2, label %46
    i32 1, label %47
  ]

46:                                               ; preds = %44
  store i32 0, ptr %3, align 4
  br label %47

47:                                               ; preds = %46, %44, %13
  %48 = load i32, ptr %3, align 4
  ret i32 %48

49:                                               ; preds = %44
  unreachable
}