; Function Attrs: nofree norecurse nosync nounwind memory(read, inaccessiblemem: none) uwtable
define dso_local range(i32 0, 2) i32 @doesCommandHaveChannelsWithFlags(ptr noundef readonly captures(none) %0, i32 noundef %1) local_unnamed_addr #16 {
  %3 = getelementptr inbounds nuw i8, ptr %0, i64 112
  %4 = load i64, ptr %3, align 8, !tbaa !186
  %5 = and i64 %4, 134217728
  %.not = icmp eq i64 %5, 0
  br i1 %.not, label %.preheader, label %.loopexit

.preheader:                                       ; preds = %2
  %6 = load ptr, ptr @commands_with_channels, align 16, !tbaa !194
  %.not1113 = icmp eq ptr %6, null
  br i1 %.not1113, label %.loopexit, label %.lr.ph

.lr.ph:                                           ; preds = %.preheader
  %7 = getelementptr inbounds nuw i8, ptr %0, i64 96
  %8 = load ptr, ptr %7, align 8, !tbaa !59
  br label %9

9:                                                ; preds = %.lr.ph, %19
  %10 = phi ptr [ %6, %.lr.ph ], [ %21, %19 ]
  %.0814 = phi ptr [ @commands_with_channels, %.lr.ph ], [ %20, %19 ]
  %11 = icmp eq ptr %8, %10
  br i1 %11, label %12, label %19

12:                                               ; preds = %9
  %13 = getelementptr inbounds nuw i8, ptr %.0814, i64 8
  %14 = load i64, ptr %13, align 8, !tbaa !196
  %15 = sext i32 %1 to i64
  %16 = and i64 %14, %15
  %17 = icmp ne i64 %16, 0
  %18 = zext i1 %17 to i32
  br label %.loopexit

19:                                               ; preds = %9
  %20 = getelementptr inbounds nuw i8, ptr %.0814, i64 24
  %21 = load ptr, ptr %20, align 8, !tbaa !194
  %.not11 = icmp eq ptr %21, null
  br i1 %.not11, label %.loopexit, label %9, !llvm.loop !197

.loopexit:                                        ; preds = %19, %.preheader, %12, %2
  %.09 = phi i32 [ 1, %2 ], [ %18, %12 ], [ 0, %.preheader ], [ 0, %19 ]
  ret i32 %.09
}